; ModuleID = '9/1339.c'
source_filename = "9/1339.c"
target datalayout = "e-m:e-p270:32:32-p271:32:32-p272:64:64-i64:64-f80:128-n8:16:32:64-S128"
target triple = "x86_64-pc-linux-gnu"

%struct.patient = type { [10 x i8], i32 }

@.str = private unnamed_addr constant [3 x i8] c"%d\00", align 1
@.str.1 = private unnamed_addr constant [5 x i8] c"%s%d\00", align 1
@pat = common dso_local global [100 x %struct.patient] zeroinitializer, align 16
@.str.2 = private unnamed_addr constant [4 x i8] c"%s\0A\00", align 1

; Function Attrs: noinline nounwind uwtable
define dso_local i32 @main() #0 {
  %1 = alloca i32, align 4
  %2 = alloca i32, align 4
  %3 = alloca i32, align 4
  %4 = alloca i32, align 4
  %5 = alloca i32, align 4
  %6 = alloca i32, align 4
  %7 = alloca i32, align 4
  %8 = alloca [10 x i8], align 1
  store i32 0, i32* %1, align 4
  store i32 0, i32* %4, align 4
  %9 = call i32 (i8*, ...) @__isoc99_scanf(i8* getelementptr inbounds ([3 x i8], [3 x i8]* @.str, i64 0, i64 0), i32* %2)
  store i32 0, i32* %3, align 4
  br label %10

10:                                               ; preds = %80, %0
  %11 = load i32, i32* %3, align 4
  %12 = load i32, i32* %2, align 4
  %13 = icmp slt i32 %11, %12
  br i1 %13, label %14, label %83

14:                                               ; preds = %10
  %15 = load i32, i32* %3, align 4
  %16 = sext i32 %15 to i64
  %17 = getelementptr inbounds [100 x %struct.patient], [100 x %struct.patient]* @pat, i64 0, i64 %16
  %18 = getelementptr inbounds %struct.patient, %struct.patient* %17, i32 0, i32 0
  %19 = load i32, i32* %3, align 4
  %20 = sext i32 %19 to i64
  %21 = getelementptr inbounds [100 x %struct.patient], [100 x %struct.patient]* @pat, i64 0, i64 %20
  %22 = getelementptr inbounds %struct.patient, %struct.patient* %21, i32 0, i32 1
  %23 = call i32 (i8*, ...) @__isoc99_scanf(i8* getelementptr inbounds ([5 x i8], [5 x i8]* @.str.1, i64 0, i64 0), [10 x i8]* %18, i32* %22)
  %24 = load i32, i32* %3, align 4
  %25 = sext i32 %24 to i64
  %26 = getelementptr inbounds [100 x %struct.patient], [100 x %struct.patient]* @pat, i64 0, i64 %25
  %27 = getelementptr inbounds %struct.patient, %struct.patient* %26, i32 0, i32 1
  %28 = load i32, i32* %27, align 4
  %29 = icmp sge i32 %28, 60
  br i1 %29, label %30, label %79

30:                                               ; preds = %14
  %31 = getelementptr inbounds [10 x i8], [10 x i8]* %8, i64 0, i64 0
  %32 = load i32, i32* %3, align 4
  %33 = sext i32 %32 to i64
  %34 = getelementptr inbounds [100 x %struct.patient], [100 x %struct.patient]* @pat, i64 0, i64 %33
  %35 = getelementptr inbounds %struct.patient, %struct.patient* %34, i32 0, i32 0
  %36 = getelementptr inbounds [10 x i8], [10 x i8]* %35, i64 0, i64 0
  %37 = call i8* @strcpy(i8* %31, i8* %36) #3
  %38 = load i32, i32* %3, align 4
  %39 = sext i32 %38 to i64
  %40 = getelementptr inbounds [100 x %struct.patient], [100 x %struct.patient]* @pat, i64 0, i64 %39
  %41 = getelementptr inbounds %struct.patient, %struct.patient* %40, i32 0, i32 1
  %42 = load i32, i32* %41, align 4
  store i32 %42, i32* %6, align 4
  %43 = load i32, i32* %3, align 4
  store i32 %43, i32* %5, align 4
  br label %44

44:                                               ; preds = %61, %30
  %45 = load i32, i32* %5, align 4
  %46 = load i32, i32* %4, align 4
  %47 = icmp sgt i32 %45, %46
  br i1 %47, label %48, label %64

48:                                               ; preds = %44
  %49 = load i32, i32* %5, align 4
  %50 = sext i32 %49 to i64
  %51 = getelementptr inbounds [100 x %struct.patient], [100 x %struct.patient]* @pat, i64 0, i64 %50
  %52 = getelementptr inbounds %struct.patient, %struct.patient* %51, i32 0, i32 0
  %53 = getelementptr inbounds [10 x i8], [10 x i8]* %52, i64 0, i64 0
  %54 = load i32, i32* %5, align 4
  %55 = sub nsw i32 %54, 1
  %56 = sext i32 %55 to i64
  %57 = getelementptr inbounds [100 x %struct.patient], [100 x %struct.patient]* @pat, i64 0, i64 %56
  %58 = getelementptr inbounds %struct.patient, %struct.patient* %57, i32 0, i32 0
  %59 = getelementptr inbounds [10 x i8], [10 x i8]* %58, i64 0, i64 0
  %60 = call i8* @strcpy(i8* %53, i8* %59) #3
  br label %61

61:                                               ; preds = %48
  %62 = load i32, i32* %5, align 4
  %63 = add nsw i32 %62, -1
  store i32 %63, i32* %5, align 4
  br label %44

64:                                               ; preds = %44
  %65 = load i32, i32* %4, align 4
  %66 = sext i32 %65 to i64
  %67 = getelementptr inbounds [100 x %struct.patient], [100 x %struct.patient]* @pat, i64 0, i64 %66
  %68 = getelementptr inbounds %struct.patient, %struct.patient* %67, i32 0, i32 0
  %69 = getelementptr inbounds [10 x i8], [10 x i8]* %68, i64 0, i64 0
  %70 = getelementptr inbounds [10 x i8], [10 x i8]* %8, i64 0, i64 0
  %71 = call i8* @strcpy(i8* %69, i8* %70) #3
  %72 = load i32, i32* %6, align 4
  %73 = load i32, i32* %4, align 4
  %74 = sext i32 %73 to i64
  %75 = getelementptr inbounds [100 x %struct.patient], [100 x %struct.patient]* @pat, i64 0, i64 %74
  %76 = getelementptr inbounds %struct.patient, %struct.patient* %75, i32 0, i32 1
  store i32 %72, i32* %76, align 4
  %77 = load i32, i32* %4, align 4
  %78 = add nsw i32 %77, 1
  store i32 %78, i32* %4, align 4
  br label %79

79:                                               ; preds = %64, %14
  br label %80

80:                                               ; preds = %79
  %81 = load i32, i32* %3, align 4
  %82 = add nsw i32 %81, 1
  store i32 %82, i32* %3, align 4
  br label %10

83:                                               ; preds = %10
  store i32 0, i32* %3, align 4
  br label %84

84:                                               ; preds = %167, %83
  %85 = load i32, i32* %3, align 4
  %86 = load i32, i32* %4, align 4
  %87 = icmp slt i32 %85, %86
  br i1 %87, label %88, label %170

88:                                               ; preds = %84
  store i32 0, i32* %5, align 4
  br label %89

89:                                               ; preds = %163, %88
  %90 = load i32, i32* %5, align 4
  %91 = load i32, i32* %3, align 4
  %92 = icmp slt i32 %90, %91
  br i1 %92, label %93, label %166

93:                                               ; preds = %89
  %94 = load i32, i32* %3, align 4
  %95 = sext i32 %94 to i64
  %96 = getelementptr inbounds [100 x %struct.patient], [100 x %struct.patient]* @pat, i64 0, i64 %95
  %97 = getelementptr inbounds %struct.patient, %struct.patient* %96, i32 0, i32 1
  %98 = load i32, i32* %97, align 4
  %99 = load i32, i32* %5, align 4
  %100 = sext i32 %99 to i64
  %101 = getelementptr inbounds [100 x %struct.patient], [100 x %struct.patient]* @pat, i64 0, i64 %100
  %102 = getelementptr inbounds %struct.patient, %struct.patient* %101, i32 0, i32 1
  %103 = load i32, i32* %102, align 4
  %104 = icmp sgt i32 %98, %103
  br i1 %104, label %105, label %162

105:                                              ; preds = %93
  %106 = load i32, i32* %3, align 4
  %107 = sext i32 %106 to i64
  %108 = getelementptr inbounds [100 x %struct.patient], [100 x %struct.patient]* @pat, i64 0, i64 %107
  %109 = getelementptr inbounds %struct.patient, %struct.patient* %108, i32 0, i32 1
  %110 = load i32, i32* %109, align 4
  store i32 %110, i32* %6, align 4
  %111 = getelementptr inbounds [10 x i8], [10 x i8]* %8, i64 0, i64 0
  %112 = load i32, i32* %3, align 4
  %113 = sext i32 %112 to i64
  %114 = getelementptr inbounds [100 x %struct.patient], [100 x %struct.patient]* @pat, i64 0, i64 %113
  %115 = getelementptr inbounds %struct.patient, %struct.patient* %114, i32 0, i32 0
  %116 = getelementptr inbounds [10 x i8], [10 x i8]* %115, i64 0, i64 0
  %117 = call i8* @strcpy(i8* %111, i8* %116) #3
  %118 = load i32, i32* %3, align 4
  store i32 %118, i32* %7, align 4
  br label %119

119:                                              ; preds = %146, %105
  %120 = load i32, i32* %7, align 4
  %121 = load i32, i32* %5, align 4
  %122 = icmp sgt i32 %120, %121
  br i1 %122, label %123, label %149

123:                                              ; preds = %119
  %124 = load i32, i32* %7, align 4
  %125 = sub nsw i32 %124, 1
  %126 = sext i32 %125 to i64
  %127 = getelementptr inbounds [100 x %struct.patient], [100 x %struct.patient]* @pat, i64 0, i64 %126
  %128 = getelementptr inbounds %struct.patient, %struct.patient* %127, i32 0, i32 1
  %129 = load i32, i32* %128, align 4
  %130 = load i32, i32* %7, align 4
  %131 = sext i32 %130 to i64
  %132 = getelementptr inbounds [100 x %struct.patient], [100 x %struct.patient]* @pat, i64 0, i64 %131
  %133 = getelementptr inbounds %struct.patient, %struct.patient* %132, i32 0, i32 1
  store i32 %129, i32* %133, align 4
  %134 = load i32, i32* %7, align 4
  %135 = sext i32 %134 to i64
  %136 = getelementptr inbounds [100 x %struct.patient], [100 x %struct.patient]* @pat, i64 0, i64 %135
  %137 = getelementptr inbounds %struct.patient, %struct.patient* %136, i32 0, i32 0
  %138 = getelementptr inbounds [10 x i8], [10 x i8]* %137, i64 0, i64 0
  %139 = load i32, i32* %7, align 4
  %140 = sub nsw i32 %139, 1
  %141 = sext i32 %140 to i64
  %142 = getelementptr inbounds [100 x %struct.patient], [100 x %struct.patient]* @pat, i64 0, i64 %141
  %143 = getelementptr inbounds %struct.patient, %struct.patient* %142, i32 0, i32 0
  %144 = getelementptr inbounds [10 x i8], [10 x i8]* %143, i64 0, i64 0
  %145 = call i8* @strcpy(i8* %138, i8* %144) #3
  br label %146

146:                                              ; preds = %123
  %147 = load i32, i32* %7, align 4
  %148 = add nsw i32 %147, -1
  store i32 %148, i32* %7, align 4
  br label %119

149:                                              ; preds = %119
  %150 = load i32, i32* %6, align 4
  %151 = load i32, i32* %5, align 4
  %152 = sext i32 %151 to i64
  %153 = getelementptr inbounds [100 x %struct.patient], [100 x %struct.patient]* @pat, i64 0, i64 %152
  %154 = getelementptr inbounds %struct.patient, %struct.patient* %153, i32 0, i32 1
  store i32 %150, i32* %154, align 4
  %155 = load i32, i32* %5, align 4
  %156 = sext i32 %155 to i64
  %157 = getelementptr inbounds [100 x %struct.patient], [100 x %struct.patient]* @pat, i64 0, i64 %156
  %158 = getelementptr inbounds %struct.patient, %struct.patient* %157, i32 0, i32 0
  %159 = getelementptr inbounds [10 x i8], [10 x i8]* %158, i64 0, i64 0
  %160 = getelementptr inbounds [10 x i8], [10 x i8]* %8, i64 0, i64 0
  %161 = call i8* @strcpy(i8* %159, i8* %160) #3
  br label %162

162:                                              ; preds = %149, %93
  br label %163

163:                                              ; preds = %162
  %164 = load i32, i32* %5, align 4
  %165 = add nsw i32 %164, 1
  store i32 %165, i32* %5, align 4
  br label %89

166:                                              ; preds = %89
  br label %167

167:                                              ; preds = %166
  %168 = load i32, i32* %3, align 4
  %169 = add nsw i32 %168, 1
  store i32 %169, i32* %3, align 4
  br label %84

170:                                              ; preds = %84
  store i32 0, i32* %3, align 4
  br label %171

171:                                              ; preds = %182, %170
  %172 = load i32, i32* %3, align 4
  %173 = load i32, i32* %2, align 4
  %174 = icmp slt i32 %172, %173
  br i1 %174, label %175, label %185

175:                                              ; preds = %171
  %176 = load i32, i32* %3, align 4
  %177 = sext i32 %176 to i64
  %178 = getelementptr inbounds [100 x %struct.patient], [100 x %struct.patient]* @pat, i64 0, i64 %177
  %179 = getelementptr inbounds %struct.patient, %struct.patient* %178, i32 0, i32 0
  %180 = getelementptr inbounds [10 x i8], [10 x i8]* %179, i64 0, i64 0
  %181 = call i32 (i8*, ...) @printf(i8* getelementptr inbounds ([4 x i8], [4 x i8]* @.str.2, i64 0, i64 0), i8* %180)
  br label %182

182:                                              ; preds = %175
  %183 = load i32, i32* %3, align 4
  %184 = add nsw i32 %183, 1
  store i32 %184, i32* %3, align 4
  br label %171

185:                                              ; preds = %171
  ret i32 0
}

declare dso_local i32 @__isoc99_scanf(i8*, ...) #1

; Function Attrs: nounwind
declare dso_local i8* @strcpy(i8*, i8*) #2

declare dso_local i32 @printf(i8*, ...) #1


!llvm.module.flags = !{!0}
!llvm.ident = !{!1}

!0 = !{i32 1, !"wchar_size", i32 4}
!1 = !{!"clang version 10.0.0-4ubuntu1 "}
